; Function Attrs: mustprogress uwtable
define void @_ZN2cv11randpattern25RandomPatternCornerFinder11loadPatternERKNS_3MatE(ptr noundef nonnull align 8 dereferenceable(348) %0, ptr noundef nonnull align 8 dereferenceable(96) %1) local_unnamed_addr #3 align 2 personality ptr @__gxx_personality_v0 {
  %3 = alloca %"class.cv::Mat", align 8
  %4 = alloca %"class.cv::_OutputArray", align 8
  %5 = alloca %"class.cv::_InputArray", align 8
  %6 = alloca %"class.cv::_InputArray", align 8
  %7 = alloca %"class.cv::_OutputArray", align 8
  %8 = alloca %"class.cv::_OutputArray", align 8
  call void @_ZNK2cv3Mat5cloneEv(ptr dead_on_unwind nonnull writable sret(%"class.cv::Mat") align 8 %3, ptr noundef nonnull align 8 dereferenceable(96) %1)
  %9 = getelementptr inbounds i8, ptr %0, i64 248
  %10 = invoke noundef nonnull align 8 dereferenceable(96) ptr @_ZN2cv3MataSEOS0_(ptr noundef nonnull align 8 dereferenceable(96) %9, ptr noundef nonnull align 8 dereferenceable(96) %3)
          to label %11 unwind label %17

11:                                               ; preds = %2
  call void @_ZN2cv3MatD1Ev(ptr noundef nonnull align 8 dereferenceable(96) %3) #16
  %12 = load i32, ptr %9, align 8
  %13 = and i32 %12, 4095
  %.not = icmp eq i32 %13, 0
  br i1 %.not, label %19, label %14

14:                                               ; preds = %11
  %15 = getelementptr inbounds i8, ptr %4, i64 8
  %16 = getelementptr inbounds i8, ptr %4, i64 16
  store i64 0, ptr %16, align 8
  store i32 33619968, ptr %4, align 8
  store ptr %9, ptr %15, align 8
  call void @_ZNK2cv3Mat9convertToERKNS_12_OutputArrayEidd(ptr noundef nonnull align 8 dereferenceable(96) %9, ptr noundef nonnull align 8 dereferenceable(24) %4, i32 noundef 0, double noundef 1.000000e+00, double noundef 0.000000e+00)
  br label %19

17:                                               ; preds = %2
  %18 = landingpad { ptr, i32 }
          cleanup
  call void @_ZN2cv3MatD1Ev(ptr noundef nonnull align 8 dereferenceable(96) %3) #16
  resume { ptr, i32 } %18

19:                                               ; preds = %14, %11
  %20 = getelementptr inbounds i8, ptr %0, i64 312
  %21 = load ptr, ptr %20, align 8
  %22 = getelementptr inbounds i8, ptr %21, i64 4
  %23 = load i32, ptr %22, align 4
  %24 = load i32, ptr %21, align 4
  %.sroa.2.0.insert.ext.i = zext i32 %24 to i64
  %.sroa.2.0.insert.shift.i = shl nuw i64 %.sroa.2.0.insert.ext.i, 32
  %.sroa.0.0.insert.ext.i = zext i32 %23 to i64
  %.sroa.0.0.insert.insert.i = or disjoint i64 %.sroa.2.0.insert.shift.i, %.sroa.0.0.insert.ext.i
  %25 = getelementptr inbounds i8, ptr %0, i64 56
  store i64 %.sroa.0.0.insert.insert.i, ptr %25, align 8
  %26 = getelementptr inbounds i8, ptr %0, i64 80
  %27 = load ptr, ptr %26, align 8
  %28 = getelementptr inbounds i8, ptr %5, i64 16
  store i32 0, ptr %28, align 8
  %29 = getelementptr inbounds i8, ptr %5, i64 20
  store i32 0, ptr %29, align 4
  store i32 16842752, ptr %5, align 8
  %30 = getelementptr inbounds i8, ptr %5, i64 8
  store ptr %1, ptr %30, align 8
  %31 = getelementptr inbounds i8, ptr %0, i64 224
  %32 = call noundef nonnull align 8 dereferenceable(24) ptr @_ZN2cv7noArrayEv()
  %33 = load ptr, ptr %27, align 8
  %34 = getelementptr inbounds i8, ptr %33, i64 64
  %35 = load ptr, ptr %34, align 8
  call void %35(ptr noundef nonnull align 8 dereferenceable(8) %27, ptr noundef nonnull align 8 dereferenceable(24) %5, ptr noundef nonnull align 8 dereferenceable(24) %31, ptr noundef nonnull align 8 dereferenceable(24) %32)
  %36 = getelementptr inbounds i8, ptr %0, i64 96
  %37 = load ptr, ptr %36, align 8
  %38 = getelementptr inbounds i8, ptr %6, i64 16
  store i32 0, ptr %38, align 8
  %39 = getelementptr inbounds i8, ptr %6, i64 20
  store i32 0, ptr %39, align 4
  store i32 16842752, ptr %6, align 8
  %40 = getelementptr inbounds i8, ptr %6, i64 8
  store ptr %1, ptr %40, align 8
  %41 = getelementptr inbounds i8, ptr %0, i64 128
  %42 = getelementptr inbounds i8, ptr %7, i64 8
  %43 = getelementptr inbounds i8, ptr %7, i64 16
  store i64 0, ptr %43, align 8
  store i32 33619968, ptr %7, align 8
  store ptr %41, ptr %42, align 8
  %44 = load ptr, ptr %37, align 8
  %45 = getelementptr inbounds i8, ptr %44, i64 80
  %46 = load ptr, ptr %45, align 8
  call void %46(ptr noundef nonnull align 8 dereferenceable(8) %37, ptr noundef nonnull align 8 dereferenceable(24) %6, ptr noundef nonnull align 8 dereferenceable(24) %31, ptr noundef nonnull align 8 dereferenceable(24) %7)
  %47 = getelementptr inbounds i8, ptr %8, i64 8
  %48 = getelementptr inbounds i8, ptr %8, i64 16
  store i64 0, ptr %48, align 8
  store i32 33619968, ptr %8, align 8
  store ptr %41, ptr %47, align 8
  call void @_ZNK2cv3Mat9convertToERKNS_12_OutputArrayEidd(ptr noundef nonnull align 8 dereferenceable(96) %41, ptr noundef nonnull align 8 dereferenceable(24) %8, i32 noundef 5, double noundef 1.000000e+00, double noundef 0.000000e+00)
  ret void
}